; Function Attrs: nounwind uwtable
define noalias nonnull ptr @l_Std_Time_Internal_Bounded_LE_subBottom___boxed(ptr noundef %0, ptr noundef %1) local_unnamed_addr #1 {
  tail call void @lean_inc_heartbeat() #5
  %3 = tail call noalias ptr @mi_malloc_small(i64 noundef 24) #5
  %4 = icmp eq ptr %3, null
  br i1 %4, label %5, label %l_Std_Time_Internal_Bounded_LE_subBottom.exit

5:                                                ; preds = %2
  tail call void @lean_internal_panic_out_of_memory() #6
  unreachable

l_Std_Time_Internal_Bounded_LE_subBottom.exit:    ; preds = %2
  %6 = getelementptr inbounds nuw i8, ptr %3, i64 4
  store i32 1, ptr %3, align 4, !tbaa !4
  store i32 -184549352, ptr %6, align 4
  %7 = getelementptr inbounds nuw i8, ptr %3, i64 8
  store ptr @l_Std_Time_Internal_Bounded_LE_subBottom___rarg___boxed, ptr %7, align 8, !tbaa !12
  %8 = getelementptr inbounds nuw i8, ptr %3, i64 16
  store i16 3, ptr %8, align 8, !tbaa !14
  %9 = getelementptr inbounds nuw i8, ptr %3, i64 18
  store i16 0, ptr %9, align 2, !tbaa !14
  %10 = ptrtoint ptr %1 to i64
  %11 = and i64 %10, 1
  %.not = icmp eq i64 %11, 0
  br i1 %.not, label %12, label %lean_dec.exit5

12:                                               ; preds = %l_Std_Time_Internal_Bounded_LE_subBottom.exit
  %13 = load i32, ptr %1, align 4, !tbaa !4
  %14 = icmp sgt i32 %13, 1
  br i1 %14, label %15, label %17, !prof !9

15:                                               ; preds = %12
  %16 = add nsw i32 %13, -1
  store i32 %16, ptr %1, align 4, !tbaa !4
  br label %lean_dec.exit5

17:                                               ; preds = %12
  %.not.i = icmp eq i32 %13, 0
  br i1 %.not.i, label %lean_dec.exit5, label %18

18:                                               ; preds = %17
  tail call void @lean_dec_ref_cold(ptr noundef nonnull %1) #5
  br label %lean_dec.exit5

lean_dec.exit5:                                   ; preds = %18, %17, %15, %l_Std_Time_Internal_Bounded_LE_subBottom.exit
  %19 = ptrtoint ptr %0 to i64
  %20 = and i64 %19, 1
  %.not8 = icmp eq i64 %20, 0
  br i1 %.not8, label %21, label %lean_dec.exit

21:                                               ; preds = %lean_dec.exit5
  %22 = load i32, ptr %0, align 4, !tbaa !4
  %23 = icmp sgt i32 %22, 1
  br i1 %23, label %24, label %26, !prof !9

24:                                               ; preds = %21
  %25 = add nsw i32 %22, -1
  store i32 %25, ptr %0, align 4, !tbaa !4
  br label %lean_dec.exit

26:                                               ; preds = %21
  %.not.i6 = icmp eq i32 %22, 0
  br i1 %.not.i6, label %lean_dec.exit, label %27

27:                                               ; preds = %26
  tail call void @lean_dec_ref_cold(ptr noundef nonnull %0) #5
  br label %lean_dec.exit

lean_dec.exit:                                    ; preds = %27, %26, %24, %lean_dec.exit5
  ret ptr %3
}